target datalayout = "e-m:e-p270:32:32-p271:32:32-p272:64:64-i64:64-i128:128-f80:128-n8:16:32:64-S128"
target triple = "x86_64-pc-linux-gnu"

%struct.redisServer = type { i32, i64, ptr, ptr, ptr, i32, i32, i32, i32, i32, ptr, ptr, ptr, ptr, ptr, i32, i32, i32, i32, i64, i32, i32, i32, i32, ptr, i32, i32, [41 x i8], i32, i64, i32, i32, i32, ptr, ptr, i32, i32, i64, ptr, ptr, ptr, ptr, [2 x i32], i32, i32, i32, i32, i32, i32, [16 x ptr], i32, ptr, ptr, i32, [8 x %struct.connListener], i32, %struct.connListener, ptr, ptr, ptr, ptr, ptr, ptr, ptr, ptr, ptr, ptr, i32, ptr, i32, ptr, [3 x %struct.pause_event], [256 x i8], ptr, i64, i32, i32, [128 x i32], i32, i32, i64, i32, i32, i32, i32, i32, i64, i64, i64, i64, i64, i64, i64, i64, i64, i64, double, i64, i64, i64, i64, i64, i64, i64, i64, i64, i64, i64, i64, i64, i64, i64, i64, i64, i64, i64, i64, i64, double, i64, i64, i64, i64, i64, ptr, i64, i64, i64, %struct.malloc_stats, i64, i64, i64, i64, i64, i64, i64, i64, i64, i64, i64, i64, double, [4 x i64], i64, i64, i64, i64, [128 x i64], [128 x i64], i64, i64, [7 x %struct.anon], i64, i64, i64, i64, i64, i64, [4 x %struct.durationStats], i32, i32, i32, i32, i32, i32, i32, i32, i32, i32, i32, i32, i64, i32, i32, i32, i32, i64, i64, i32, i32, i32, i32, i32, ptr, [3 x %struct.clientBufferLimitsConfig], i32, i32, i32, ptr, i32, i32, i32, i32, i32, i32, ptr, ptr, i32, i32, i64, i64, i64, i64, i64, i32, i32, ptr, i32, i32, i64, i64, i64, i64, i64, i32, i32, i64, i32, i32, i32, i32, i32, i32, i32, i32, ptr, i32, i64, i64, i64, i64, i32, ptr, i32, ptr, i32, i32, i32, i64, i64, i64, i64, i32, i32, i32, i32, i32, i32, ptr, i32, i32, ptr, i32, i32, i32, [2 x i32], i32, %struct.redisOpArray, i32, ptr, i32, ptr, i32, i32, i32, i32, i32, i32, i32, [41 x i8], [41 x i8], i64, i64, i64, i64, i32, i32, ptr, i64, i64, %struct.replDataBuf, i64, i64, i32, i32, i32, i32, i32, i32, i32, i32, i32, i64, ptr, i64, ptr, ptr, ptr, i32, i32, ptr, ptr, i32, i32, i32, i64, i64, i64, i64, ptr, ptr, i32, ptr, i64, i32, i32, i32, i64, i32, i32, i32, i32, ptr, i32, i32, [41 x i8], i64, i32, ptr, i32, i32, i64, i64, i32, i32, i32, i32, i32, i64, [3 x i32], i32, i32, i32, [10 x i32], ptr, ptr, i32, i64, ptr, ptr, i32, i32, i32, i32, i64, i64, i64, i64, i64, i64, i64, i64, i64, i64, i32, i32, i64, i64, i32, i64, i64, i64, i64, i64, ptr, ptr, i32, ptr, i32, i32, i32, i32, i64, i64, ptr, ptr, i32, i32, i32, i32, i32, ptr, ptr, ptr, i32, i32, i32, i32, i32, i32, i32, i64, i32, i32, i64, i32, i32, i32, i32, i32, i32, i32, i64, ptr, ptr, i64, ptr, i32, %struct.aclInfo, i32, i64, i32, i32, i32, %struct.redisTLSContextConfig, ptr, ptr, ptr, ptr, ptr, i64, i32, ptr, i32, i32, i32, i64, i32, ptr }
%struct.connListener = type { [16 x i32], i32, ptr, i32, i32, ptr, ptr }
%struct.pause_event = type { i32, i64 }
%struct.malloc_stats = type { i64, i64, i64, i64, i64, i64, i64, i64, i64, i64, i64 }
%struct.anon = type { i64, i64, [16 x i64], i32 }
%struct.durationStats = type { i64, i64, i64 }
%struct.clientBufferLimitsConfig = type { i64, i64, i64 }
%struct.redisOpArray = type { ptr, i32, i32 }
%struct.replDataBuf = type { ptr, i64, i64, i64, i64 }
%struct.aclInfo = type { i64, i64, i64, i64 }
%struct.redisTLSContextConfig = type { ptr, ptr, ptr, ptr, ptr, ptr, ptr, ptr, ptr, ptr, ptr, ptr, i32, i32, i32, i32 }
%struct.client = type { i64, i64, ptr, i8, i8, i8, i8, i32, ptr, ptr, ptr, ptr, ptr, i64, i64, i32, ptr, i32, i32, ptr, i64, ptr, ptr, ptr, ptr, ptr, i32, i32, i64, ptr, i64, ptr, i64, i64, i64, i32, ptr, i64, i64, i32, i32, i32, i32, i64, i64, ptr, i64, i64, i64, i64, i64, i64, i64, i64, [41 x i8], i32, ptr, i32, i32, i64, %struct.multiState, %struct.blockingState, i64, ptr, ptr, ptr, ptr, ptr, ptr, ptr, ptr, ptr, ptr, ptr, ptr, ptr, ptr, i64, ptr, i64, i32, ptr, ptr, ptr, i64, %struct.listNode, i64, i64, i32, i64, ptr }
%struct.multiState = type { ptr, i32, i32, i32, i64, i32 }
%struct.blockingState = type { i32, i64, i32, ptr, i32, i32, i64, ptr, ptr, i64 }
%struct.listNode = type { ptr, ptr, ptr }
%struct.redisDb = type { ptr, ptr, ptr, ptr, ptr, ptr, ptr, i32, i64, i64, ptr }

@server = external global %struct.redisServer, align 8

; Function Attrs: nounwind uwtable
define dso_local void @ldbDisable(ptr noundef %0) #0 {
  %2 = alloca ptr, align 8
  store ptr %0, ptr %2, align 8, !tbaa !110
  %3 = load ptr, ptr %2, align 8, !tbaa !110
  %4 = getelementptr inbounds nuw %struct.client, ptr %3, i32 0, i32 1
  %5 = load i64, ptr %4, align 8, !tbaa !64
  %6 = and i64 %5, -100663297
  store i64 %6, ptr %4, align 8, !tbaa !64
  ret void
}

; Function Attrs: nounwind uwtable
define dso_local void @evalGenericCommandWithDebugging(ptr noundef %0, i32 noundef %1) #0 {
  %3 = alloca ptr, align 8
  %4 = alloca i32, align 4
  store ptr %0, ptr %3, align 8, !tbaa !110
  store i32 %1, ptr %4, align 4, !tbaa !19
  %5 = load ptr, ptr %3, align 8, !tbaa !110
  %6 = call i32 @ldbStartSession(ptr noundef %5)
  %7 = icmp ne i32 %6, 0
  br i1 %7, label %8, label %12

8:                                                ; preds = %2
  %9 = load ptr, ptr %3, align 8, !tbaa !110
  %10 = load i32, ptr %4, align 4, !tbaa !19
  call void @evalGenericCommand(ptr noundef %9, i32 noundef %10)
  %11 = load ptr, ptr %3, align 8, !tbaa !110
  call void @ldbEndSession(ptr noundef %11)
  br label %14

12:                                               ; preds = %2
  %13 = load ptr, ptr %3, align 8, !tbaa !110
  call void @ldbDisable(ptr noundef %13)
  br label %14

14:                                               ; preds = %12, %8
  ret void
}

; Function Attrs: nounwind uwtable
define dso_local void @evalCommand(ptr noundef %0) #0 {
  %2 = alloca ptr, align 8
  store ptr %0, ptr %2, align 8, !tbaa !110
  %3 = load ptr, ptr %2, align 8, !tbaa !110
  %4 = load ptr, ptr getelementptr inbounds nuw (%struct.redisServer, ptr @server, i32 0, i32 62), align 8, !tbaa !126
  %5 = load ptr, ptr %2, align 8, !tbaa !110
  %6 = getelementptr inbounds nuw %struct.client, ptr %5, i32 0, i32 8
  %7 = load ptr, ptr %6, align 8, !tbaa !127
  %8 = getelementptr inbounds nuw %struct.redisDb, ptr %7, i32 0, i32 7
  %9 = load i32, ptr %8, align 8, !tbaa !128
  %10 = load ptr, ptr %2, align 8, !tbaa !110
  %11 = getelementptr inbounds nuw %struct.client, ptr %10, i32 0, i32 16
  %12 = load ptr, ptr %11, align 8, !tbaa !118
  %13 = load ptr, ptr %2, align 8, !tbaa !110
  %14 = getelementptr inbounds nuw %struct.client, ptr %13, i32 0, i32 15
  %15 = load i32, ptr %14, align 8, !tbaa !130
  call void @replicationFeedMonitors(ptr noundef %3, ptr noundef %4, i32 noundef %9, ptr noundef %12, i32 noundef %15)
  %16 = load ptr, ptr %2, align 8, !tbaa !110
  %17 = getelementptr inbounds nuw %struct.client, ptr %16, i32 0, i32 1
  %18 = load i64, ptr %17, align 8, !tbaa !64
  %19 = and i64 %18, 33554432
  %20 = icmp ne i64 %19, 0
  br i1 %20, label %23, label %21

21:                                               ; preds = %1
  %22 = load ptr, ptr %2, align 8, !tbaa !110
  call void @evalGenericCommand(ptr noundef %22, i32 noundef 0)
  br label %25

23:                                               ; preds = %1
  %24 = load ptr, ptr %2, align 8, !tbaa !110
  call void @evalGenericCommandWithDebugging(ptr noundef %24, i32 noundef 0)
  br label %25

25:                                               ; preds = %23, %21
  ret void
}